; Function Attrs: mustprogress uwtable
define internal void @_ZN4absl13cord_internal12_GLOBAL__N_120CordRepBtreeDualTest8ToStringB5cxx11EN7testing13TestParamInfoISt5tupleIJbbEEEE(ptr noalias sret(%"class.std::__cxx11::basic_string") align 8 %agg.result, ptr nocapture noundef readonly %param) #3 align 2 personality ptr @__gxx_personality_v0 {
entry:
  %ref.tmp = alloca %"class.std::allocator", align 1
  %ref.tmp9 = alloca %"class.std::allocator", align 1
  %add.ptr.i.i.i = getelementptr inbounds i8, ptr %param, i64 1
  %0 = load i8, ptr %add.ptr.i.i.i, align 1
  %1 = and i8 %0, 1
  %tobool.not = icmp eq i8 %1, 0
  %2 = load i8, ptr %param, align 1
  %3 = and i8 %2, 1
  %tobool7.not = icmp eq i8 %3, 0
  br i1 %tobool.not, label %if.end, label %if.then

if.then:                                          ; preds = %entry
  %cond = select i1 %tobool7.not, ptr @.str.100, ptr @.str.99
  call void @_ZNSaIcEC1Ev(ptr noundef nonnull align 1 dereferenceable(1) %ref.tmp) #28
  %call.i2 = invoke noundef ptr @_ZNSt7__cxx1112basic_stringIcSt11char_traitsIcESaIcEE13_M_local_dataEv(ptr noundef nonnull align 8 dereferenceable(32) %agg.result)
          to label %call.i.noexc unwind label %lpad

call.i.noexc:                                     ; preds = %if.then
  invoke void @_ZNSt7__cxx1112basic_stringIcSt11char_traitsIcESaIcEE12_Alloc_hiderC1EPcRKS3_(ptr noundef nonnull align 8 dereferenceable(8) %agg.result, ptr noundef %call.i2, ptr noundef nonnull align 1 dereferenceable(1) %ref.tmp)
          to label %.noexc unwind label %lpad

.noexc:                                           ; preds = %call.i.noexc
  %call.i.i = select i1 %tobool7.not, i64 11, i64 10
  %add.ptr.i = getelementptr inbounds i8, ptr %cond, i64 %call.i.i
  invoke void @_ZNSt7__cxx1112basic_stringIcSt11char_traitsIcESaIcEE12_M_constructIPKcEEvT_S8_St20forward_iterator_tag(ptr noundef nonnull align 8 dereferenceable(32) %agg.result, ptr noundef nonnull %cond, ptr noundef nonnull %add.ptr.i)
          to label %return unwind label %lpad.i

lpad.i:                                           ; preds = %.noexc
  %4 = landingpad { ptr, i32 }
          cleanup
  call void @_ZNSaIcED2Ev(ptr noundef nonnull align 1 dereferenceable(1) %agg.result) #28
  br label %eh.resume

lpad:                                             ; preds = %call.i.noexc, %if.then
  %5 = landingpad { ptr, i32 }
          cleanup
  br label %eh.resume

if.end:                                           ; preds = %entry
  %cond8 = select i1 %tobool7.not, ptr @.str.98, ptr @.str.101
  call void @_ZNSaIcEC1Ev(ptr noundef nonnull align 1 dereferenceable(1) %ref.tmp9) #28
  %call.i7 = invoke noundef ptr @_ZNSt7__cxx1112basic_stringIcSt11char_traitsIcESaIcEE13_M_local_dataEv(ptr noundef nonnull align 8 dereferenceable(32) %agg.result)
          to label %call.i.noexc6 unwind label %lpad10

call.i.noexc6:                                    ; preds = %if.end
  invoke void @_ZNSt7__cxx1112basic_stringIcSt11char_traitsIcESaIcEE12_Alloc_hiderC1EPcRKS3_(ptr noundef nonnull align 8 dereferenceable(8) %agg.result, ptr noundef %call.i7, ptr noundef nonnull align 1 dereferenceable(1) %ref.tmp9)
          to label %.noexc8 unwind label %lpad10

.noexc8:                                          ; preds = %call.i.noexc6
  %call.i.i3 = select i1 %tobool7.not, i64 7, i64 12
  %add.ptr.i4 = getelementptr inbounds i8, ptr %cond8, i64 %call.i.i3
  invoke void @_ZNSt7__cxx1112basic_stringIcSt11char_traitsIcESaIcEE12_M_constructIPKcEEvT_S8_St20forward_iterator_tag(ptr noundef nonnull align 8 dereferenceable(32) %agg.result, ptr noundef nonnull %cond8, ptr noundef nonnull %add.ptr.i4)
          to label %return unwind label %lpad.i5

lpad.i5:                                          ; preds = %.noexc8
  %6 = landingpad { ptr, i32 }
          cleanup
  call void @_ZNSaIcED2Ev(ptr noundef nonnull align 1 dereferenceable(1) %agg.result) #28
  br label %eh.resume

lpad10:                                           ; preds = %call.i.noexc6, %if.end
  %7 = landingpad { ptr, i32 }
          cleanup
  br label %eh.resume

return:                                           ; preds = %.noexc8, %.noexc
  %ref.tmp9.sink = phi ptr [ %ref.tmp, %.noexc ], [ %ref.tmp9, %.noexc8 ]
  call void @_ZNSaIcED1Ev(ptr noundef nonnull align 1 dereferenceable(1) %ref.tmp9.sink) #28
  ret void

eh.resume:                                        ; preds = %lpad10, %lpad.i5, %lpad, %lpad.i
  %ref.tmp9.sink11 = phi ptr [ %ref.tmp, %lpad.i ], [ %ref.tmp, %lpad ], [ %ref.tmp9, %lpad.i5 ], [ %ref.tmp9, %lpad10 ]
  %.pn = phi { ptr, i32 } [ %4, %lpad.i ], [ %5, %lpad ], [ %6, %lpad.i5 ], [ %7, %lpad10 ]
  call void @_ZNSaIcED1Ev(ptr noundef nonnull align 1 dereferenceable(1) %ref.tmp9.sink11) #28
  resume { ptr, i32 } %.pn
}